target datalayout = "e-m:e-p270:32:32-p271:32:32-p272:64:64-i64:64-i128:128-f80:128-n8:16:32:64-S128"
target triple = "x86_64-unknown-linux-gnu"

%struct.btMaterialProperties = type { i32, ptr, i32, i32, i32, ptr, i32, i32 }
%class.btTriangleIndexVertexMaterialArray = type { %class.btTriangleIndexVertexArray.base, [4 x i8], %class.btAlignedObjectArray.0 }
%class.btTriangleIndexVertexArray.base = type <{ %class.btStridingMeshInterface, %class.btAlignedObjectArray, [2 x i32], i32, %class.btVector3, %class.btVector3 }>
%class.btStridingMeshInterface = type { ptr, %class.btVector3 }
%class.btAlignedObjectArray = type <{ %class.btAlignedAllocator, [3 x i8], i32, i32, [4 x i8], ptr, i8, [7 x i8] }>
%class.btAlignedAllocator = type { i8 }
%class.btVector3 = type { [4 x float] }
%class.btAlignedObjectArray.0 = type <{ %class.btAlignedAllocator.1, [3 x i8], i32, i32, [4 x i8], ptr, i8, [7 x i8] }>
%class.btAlignedAllocator.1 = type { i8 }

; Function Attrs: mustprogress nounwind uwtable
define linkonce_odr dso_local void @_ZN20btAlignedObjectArrayI20btMaterialPropertiesE4initEv(ptr noundef nonnull align 8 dereferenceable(25) %this) #1 comdat align 2 {
entry:
  %this.addr = alloca ptr, align 8
  store ptr %this, ptr %this.addr, align 8
  %this1 = load ptr, ptr %this.addr, align 8
  %m_ownsMemory = getelementptr inbounds %class.btAlignedObjectArray.0, ptr %this1, i32 0, i32 6
  store i8 1, ptr %m_ownsMemory, align 8
  %m_data = getelementptr inbounds %class.btAlignedObjectArray.0, ptr %this1, i32 0, i32 5
  store ptr null, ptr %m_data, align 8
  %m_size = getelementptr inbounds %class.btAlignedObjectArray.0, ptr %this1, i32 0, i32 2
  store i32 0, ptr %m_size, align 4
  %m_capacity = getelementptr inbounds %class.btAlignedObjectArray.0, ptr %this1, i32 0, i32 3
  store i32 0, ptr %m_capacity, align 8
  ret void
}

; Function Attrs: mustprogress nounwind uwtable
define linkonce_odr dso_local void @_ZN18btAlignedAllocatorI20btMaterialPropertiesLj16EEC2Ev(ptr noundef nonnull align 1 dereferenceable(1) %this) unnamed_addr #1 comdat align 2 {
entry:
  %this.addr = alloca ptr, align 8
  store ptr %this, ptr %this.addr, align 8
  ret void
}

; Function Attrs: mustprogress uwtable
define linkonce_odr dso_local void @_ZN20btAlignedObjectArrayI20btMaterialPropertiesEC2Ev(ptr noundef nonnull align 8 dereferenceable(25) %this) unnamed_addr #2 comdat align 2 {
entry:
  %this.addr = alloca ptr, align 8
  store ptr %this, ptr %this.addr, align 8
  %this1 = load ptr, ptr %this.addr, align 8
  %m_allocator = getelementptr inbounds %class.btAlignedObjectArray.0, ptr %this1, i32 0, i32 0
  call void @_ZN18btAlignedAllocatorI20btMaterialPropertiesLj16EEC2Ev(ptr noundef nonnull align 1 dereferenceable(1) %m_allocator)
  call void @_ZN20btAlignedObjectArrayI20btMaterialPropertiesE4initEv(ptr noundef nonnull align 8 dereferenceable(25) %this1)
  ret void
}

; Function Attrs: mustprogress uwtable
define dso_local void @_ZN34btTriangleIndexVertexMaterialArrayC2EiPiiiPfiiPhiS0_i(ptr noundef nonnull align 8 dereferenceable(136) %this, i32 noundef %numTriangles, ptr noundef %triangleIndexBase, i32 noundef %triangleIndexStride, i32 noundef %numVertices, ptr noundef %vertexBase, i32 noundef %vertexStride, i32 noundef %numMaterials, ptr noundef %materialBase, i32 noundef %materialStride, ptr noundef %triangleMaterialsBase, i32 noundef %materialIndexStride) unnamed_addr #2 align 2 personality ptr @__gxx_personality_v0 {
entry:
  %this.addr = alloca ptr, align 8
  %numTriangles.addr = alloca i32, align 4
  %triangleIndexBase.addr = alloca ptr, align 8
  %triangleIndexStride.addr = alloca i32, align 4
  %numVertices.addr = alloca i32, align 4
  %vertexBase.addr = alloca ptr, align 8
  %vertexStride.addr = alloca i32, align 4
  %numMaterials.addr = alloca i32, align 4
  %materialBase.addr = alloca ptr, align 8
  %materialStride.addr = alloca i32, align 4
  %triangleMaterialsBase.addr = alloca ptr, align 8
  %materialIndexStride.addr = alloca i32, align 4
  %exn.slot = alloca ptr, align 8
  %ehselector.slot = alloca i32, align 4
  %mat = alloca %struct.btMaterialProperties, align 8
  store ptr %this, ptr %this.addr, align 8
  store i32 %numTriangles, ptr %numTriangles.addr, align 4
  store ptr %triangleIndexBase, ptr %triangleIndexBase.addr, align 8
  store i32 %triangleIndexStride, ptr %triangleIndexStride.addr, align 4
  store i32 %numVertices, ptr %numVertices.addr, align 4
  store ptr %vertexBase, ptr %vertexBase.addr, align 8
  store i32 %vertexStride, ptr %vertexStride.addr, align 4
  store i32 %numMaterials, ptr %numMaterials.addr, align 4
  store ptr %materialBase, ptr %materialBase.addr, align 8
  store i32 %materialStride, ptr %materialStride.addr, align 4
  store ptr %triangleMaterialsBase, ptr %triangleMaterialsBase.addr, align 8
  store i32 %materialIndexStride, ptr %materialIndexStride.addr, align 4
  %this1 = load ptr, ptr %this.addr, align 8
  %0 = load i32, ptr %numTriangles.addr, align 4
  %1 = load ptr, ptr %triangleIndexBase.addr, align 8
  %2 = load i32, ptr %triangleIndexStride.addr, align 4
  %3 = load i32, ptr %numVertices.addr, align 4
  %4 = load ptr, ptr %vertexBase.addr, align 8
  %5 = load i32, ptr %vertexStride.addr, align 4
  call void @_ZN26btTriangleIndexVertexArrayC2EiPiiiPfi(ptr noundef nonnull align 8 dereferenceable(100) %this1, i32 noundef %0, ptr noundef %1, i32 noundef %2, i32 noundef %3, ptr noundef %4, i32 noundef %5)
  store ptr getelementptr inbounds ({ [19 x ptr] }, ptr @_ZTV34btTriangleIndexVertexMaterialArray, i32 0, i32 0, i32 2), ptr %this1, align 8
  %m_materials = getelementptr inbounds %class.btTriangleIndexVertexMaterialArray, ptr %this1, i32 0, i32 2
  invoke void @_ZN20btAlignedObjectArrayI20btMaterialPropertiesEC2Ev(ptr noundef nonnull align 8 dereferenceable(25) %m_materials)
          to label %invoke.cont unwind label %lpad

invoke.cont:                                      ; preds = %entry
  %6 = load i32, ptr %numMaterials.addr, align 4
  %m_numMaterials = getelementptr inbounds %struct.btMaterialProperties, ptr %mat, i32 0, i32 0
  store i32 %6, ptr %m_numMaterials, align 8
  %7 = load ptr, ptr %materialBase.addr, align 8
  %m_materialBase = getelementptr inbounds %struct.btMaterialProperties, ptr %mat, i32 0, i32 1
  store ptr %7, ptr %m_materialBase, align 8
  %8 = load i32, ptr %materialStride.addr, align 4
  %m_materialStride = getelementptr inbounds %struct.btMaterialProperties, ptr %mat, i32 0, i32 2
  store i32 %8, ptr %m_materialStride, align 8
  %m_materialType = getelementptr inbounds %struct.btMaterialProperties, ptr %mat, i32 0, i32 3
  store i32 0, ptr %m_materialType, align 4
  %9 = load i32, ptr %numTriangles.addr, align 4
  %m_numTriangles = getelementptr inbounds %struct.btMaterialProperties, ptr %mat, i32 0, i32 4
  store i32 %9, ptr %m_numTriangles, align 8
  %10 = load ptr, ptr %triangleMaterialsBase.addr, align 8
  %m_triangleMaterialsBase = getelementptr inbounds %struct.btMaterialProperties, ptr %mat, i32 0, i32 5
  store ptr %10, ptr %m_triangleMaterialsBase, align 8
  %11 = load i32, ptr %materialIndexStride.addr, align 4
  %m_triangleMaterialStride = getelementptr inbounds %struct.btMaterialProperties, ptr %mat, i32 0, i32 6
  store i32 %11, ptr %m_triangleMaterialStride, align 8
  %m_triangleType = getelementptr inbounds %struct.btMaterialProperties, ptr %mat, i32 0, i32 7
  store i32 2, ptr %m_triangleType, align 4
  invoke void @_ZN34btTriangleIndexVertexMaterialArray21addMaterialPropertiesERK20btMaterialProperties14PHY_ScalarType(ptr noundef nonnull align 8 dereferenceable(136) %this1, ptr noundef nonnull align 8 dereferenceable(48) %mat, i32 noundef 2)
          to label %invoke.cont3 unwind label %lpad2

invoke.cont3:                                     ; preds = %invoke.cont
  ret void

lpad:                                             ; preds = %entry
  %12 = landingpad { ptr, i32 }
          cleanup
  %13 = extractvalue { ptr, i32 } %12, 0
  store ptr %13, ptr %exn.slot, align 8
  %14 = extractvalue { ptr, i32 } %12, 1
  store i32 %14, ptr %ehselector.slot, align 4
  br label %ehcleanup

lpad2:                                            ; preds = %invoke.cont
  %15 = landingpad { ptr, i32 }
          cleanup
  %16 = extractvalue { ptr, i32 } %15, 0
  store ptr %16, ptr %exn.slot, align 8
  %17 = extractvalue { ptr, i32 } %15, 1
  store i32 %17, ptr %ehselector.slot, align 4
  call void @_ZN20btAlignedObjectArrayI20btMaterialPropertiesED2Ev(ptr noundef nonnull align 8 dereferenceable(25) %m_materials) #7
  br label %ehcleanup

ehcleanup:                                        ; preds = %lpad2, %lpad
  call void @_ZN26btTriangleIndexVertexArrayD2Ev(ptr noundef nonnull align 8 dereferenceable(100) %this1) #7
  br label %eh.resume

eh.resume:                                        ; preds = %ehcleanup
  %exn = load ptr, ptr %exn.slot, align 8
  %sel = load i32, ptr %ehselector.slot, align 4
  %lpad.val = insertvalue { ptr, i32 } poison, ptr %exn, 0
  %lpad.val4 = insertvalue { ptr, i32 } %lpad.val, i32 %sel, 1
  resume { ptr, i32 } %lpad.val4
}