; Function Attrs: mustprogress uwtable
define dso_local void @_ZN34btTriangleIndexVertexMaterialArrayC2EiPiiiPfiiPhiS0_i(ptr noundef nonnull align 8 dereferenceable(136) %this, i32 noundef %numTriangles, ptr noundef %triangleIndexBase, i32 noundef %triangleIndexStride, i32 noundef %numVertices, ptr noundef %vertexBase, i32 noundef %vertexStride, i32 noundef %numMaterials, ptr noundef %materialBase, i32 noundef %materialStride, ptr noundef %triangleMaterialsBase, i32 noundef %materialIndexStride) unnamed_addr #0 align 2 personality ptr @__gxx_personality_v0 {
invoke.cont:
  %mat = alloca %struct.btMaterialProperties, align 8
  tail call void @_ZN26btTriangleIndexVertexArrayC2EiPiiiPfi(ptr noundef nonnull align 8 dereferenceable(100) %this, i32 noundef %numTriangles, ptr noundef %triangleIndexBase, i32 noundef %triangleIndexStride, i32 noundef %numVertices, ptr noundef %vertexBase, i32 noundef %vertexStride)
  store ptr getelementptr inbounds ({ [19 x ptr] }, ptr @_ZTV34btTriangleIndexVertexMaterialArray, i64 0, i32 0, i64 2), ptr %this, align 8
  %m_ownsMemory.i.i = getelementptr inbounds i8, ptr %this, i64 128
  store i8 1, ptr %m_ownsMemory.i.i, align 8
  %m_data.i.i = getelementptr inbounds i8, ptr %this, i64 120
  store ptr null, ptr %m_data.i.i, align 8
  %m_size.i.i = getelementptr inbounds i8, ptr %this, i64 108
  store i32 0, ptr %m_size.i.i, align 4
  %m_capacity.i.i = getelementptr inbounds i8, ptr %this, i64 112
  store i32 0, ptr %m_capacity.i.i, align 8
  store i32 %numMaterials, ptr %mat, align 8
  %m_materialBase = getelementptr inbounds i8, ptr %mat, i64 8
  store ptr %materialBase, ptr %m_materialBase, align 8
  %m_materialStride = getelementptr inbounds i8, ptr %mat, i64 16
  store i32 %materialStride, ptr %m_materialStride, align 8
  %m_materialType = getelementptr inbounds i8, ptr %mat, i64 20
  store i32 0, ptr %m_materialType, align 4
  %m_numTriangles = getelementptr inbounds i8, ptr %mat, i64 24
  store i32 %numTriangles, ptr %m_numTriangles, align 8
  %m_triangleMaterialsBase = getelementptr inbounds i8, ptr %mat, i64 32
  store ptr %triangleMaterialsBase, ptr %m_triangleMaterialsBase, align 8
  %m_triangleMaterialStride = getelementptr inbounds i8, ptr %mat, i64 40
  store i32 %materialIndexStride, ptr %m_triangleMaterialStride, align 8
  %m_triangleType = getelementptr inbounds i8, ptr %mat, i64 44
  store i32 2, ptr %m_triangleType, align 4
  invoke void @_ZN34btTriangleIndexVertexMaterialArray21addMaterialPropertiesERK20btMaterialProperties14PHY_ScalarType(ptr noundef nonnull align 8 dereferenceable(136) %this, ptr noundef nonnull align 8 dereferenceable(48) %mat, i32 noundef 2)
          to label %invoke.cont3 unwind label %lpad2

invoke.cont3:                                     ; preds = %invoke.cont
  ret void

lpad2:                                            ; preds = %invoke.cont
  %0 = landingpad { ptr, i32 }
          cleanup
  %m_materials = getelementptr inbounds i8, ptr %this, i64 104
  call void @_ZN20btAlignedObjectArrayI20btMaterialPropertiesED2Ev(ptr noundef nonnull align 8 dereferenceable(25) %m_materials) #7
  call void @_ZN26btTriangleIndexVertexArrayD2Ev(ptr noundef nonnull align 8 dereferenceable(100) %this) #7
  resume { ptr, i32 } %0
}